; Function Attrs: nounwind uwtable
define hidden ptr @RotatingTree_Get(ptr noundef captures(none) %0, ptr noundef readnone %1) local_unnamed_addr #1 {
  %3 = cmpxchg ptr @random_mutex, i8 0, i8 1 seq_cst seq_cst, align 1
  %4 = extractvalue { i8, i1 } %3, 1
  br i1 %4, label %_PyMutex_Lock.exit.i, label %5

5:                                                ; preds = %2
  tail call void @PyMutex_Lock(ptr noundef nonnull @random_mutex) #4
  br label %_PyMutex_Lock.exit.i

_PyMutex_Lock.exit.i:                             ; preds = %5, %2
  %6 = load i32, ptr @random_stream, align 4, !tbaa !12
  %7 = icmp ult i32 %6, 8
  br i1 %7, label %8, label %11

8:                                                ; preds = %_PyMutex_Lock.exit.i
  %9 = load i32, ptr @random_value, align 4, !tbaa !12
  %10 = mul i32 %9, 1082527
  store i32 %10, ptr @random_value, align 4, !tbaa !12
  br label %11

11:                                               ; preds = %8, %_PyMutex_Lock.exit.i
  %12 = phi i32 [ %10, %8 ], [ %6, %_PyMutex_Lock.exit.i ]
  %13 = lshr i32 %12, 3
  store i32 %13, ptr @random_stream, align 4, !tbaa !12
  %14 = cmpxchg ptr @random_mutex, i8 1, i8 0 seq_cst seq_cst, align 1
  %15 = extractvalue { i8, i1 } %14, 1
  br i1 %15, label %randombits.exit, label %16

16:                                               ; preds = %11
  tail call void @PyMutex_Unlock(ptr noundef nonnull @random_mutex) #4
  br label %randombits.exit

randombits.exit:                                  ; preds = %11, %16
  %17 = and i32 %12, 7
  %.not = icmp eq i32 %17, 4
  %18 = load ptr, ptr %0, align 8, !tbaa !3
  %19 = icmp eq ptr %18, null
  br i1 %.not, label %24, label %.preheader54

.preheader54:                                     ; preds = %randombits.exit
  br i1 %19, label %.loopexit, label %.lr.ph

.lr.ph:                                           ; preds = %.preheader54, %22
  %.04259 = phi ptr [ %.042, %22 ], [ %18, %.preheader54 ]
  %20 = load ptr, ptr %.04259, align 8, !tbaa !8
  %21 = icmp eq ptr %20, %1
  br i1 %21, label %.loopexit, label %22

22:                                               ; preds = %.lr.ph
  %23 = icmp ult ptr %1, %20
  %.143.in.v = select i1 %23, i64 8, i64 16
  %.143.in = getelementptr inbounds nuw i8, ptr %.04259, i64 %.143.in.v
  %.042 = load ptr, ptr %.143.in, align 8, !tbaa !3
  %.not51 = icmp eq ptr %.042, null
  br i1 %.not51, label %.loopexit, label %.lr.ph, !llvm.loop !14

24:                                               ; preds = %randombits.exit
  br i1 %19, label %.loopexit, label %.preheader

.preheader:                                       ; preds = %24
  %25 = load ptr, ptr %18, align 8, !tbaa !8
  %26 = icmp eq ptr %25, %1
  br i1 %26, label %.loopexit, label %.lr.ph64

.lr.ph64:                                         ; preds = %.preheader, %60
  %.03963 = phi ptr [ %.038, %60 ], [ %18, %.preheader ]
  %.04062 = phi ptr [ %.141, %60 ], [ %0, %.preheader ]
  %27 = cmpxchg ptr @random_mutex, i8 0, i8 1 seq_cst seq_cst, align 1
  %28 = extractvalue { i8, i1 } %27, 1
  br i1 %28, label %_PyMutex_Lock.exit.i52, label %29

29:                                               ; preds = %.lr.ph64
  tail call void @PyMutex_Lock(ptr noundef nonnull @random_mutex) #4
  br label %_PyMutex_Lock.exit.i52

_PyMutex_Lock.exit.i52:                           ; preds = %29, %.lr.ph64
  %30 = load i32, ptr @random_stream, align 4, !tbaa !12
  %31 = icmp ult i32 %30, 2
  br i1 %31, label %32, label %35

32:                                               ; preds = %_PyMutex_Lock.exit.i52
  %33 = load i32, ptr @random_value, align 4, !tbaa !12
  %34 = mul i32 %33, 1082527
  store i32 %34, ptr @random_value, align 4, !tbaa !12
  br label %35

35:                                               ; preds = %32, %_PyMutex_Lock.exit.i52
  %36 = phi i32 [ %34, %32 ], [ %30, %_PyMutex_Lock.exit.i52 ]
  %37 = lshr i32 %36, 1
  store i32 %37, ptr @random_stream, align 4, !tbaa !12
  %38 = cmpxchg ptr @random_mutex, i8 1, i8 0 seq_cst seq_cst, align 1
  %39 = extractvalue { i8, i1 } %38, 1
  br i1 %39, label %randombits.exit53, label %40

40:                                               ; preds = %35
  tail call void @PyMutex_Unlock(ptr noundef nonnull @random_mutex) #4
  br label %randombits.exit53

randombits.exit53:                                ; preds = %35, %40
  %41 = and i32 %36, 1
  %.not50 = icmp eq i32 %41, 0
  %42 = load ptr, ptr %.03963, align 8, !tbaa !8
  %43 = icmp ult ptr %1, %42
  br i1 %43, label %44, label %52

44:                                               ; preds = %randombits.exit53
  %45 = getelementptr inbounds nuw i8, ptr %.03963, i64 8
  %46 = load ptr, ptr %45, align 8, !tbaa !15
  %47 = icmp eq ptr %46, null
  br i1 %47, label %.loopexit, label %48

48:                                               ; preds = %44
  br i1 %.not50, label %49, label %60

49:                                               ; preds = %48
  %50 = getelementptr inbounds nuw i8, ptr %46, i64 16
  %51 = load ptr, ptr %50, align 8, !tbaa !16
  store ptr %51, ptr %45, align 8, !tbaa !15
  store ptr %.03963, ptr %50, align 8, !tbaa !16
  br label %.sink.split

52:                                               ; preds = %randombits.exit53
  %53 = getelementptr inbounds nuw i8, ptr %.03963, i64 16
  %54 = load ptr, ptr %53, align 8, !tbaa !16
  %55 = icmp eq ptr %54, null
  br i1 %55, label %.loopexit, label %56

56:                                               ; preds = %52
  br i1 %.not50, label %57, label %60

57:                                               ; preds = %56
  %58 = getelementptr inbounds nuw i8, ptr %54, i64 8
  %59 = load ptr, ptr %58, align 8, !tbaa !15
  store ptr %59, ptr %53, align 8, !tbaa !16
  store ptr %.03963, ptr %58, align 8, !tbaa !15
  br label %.sink.split

.sink.split:                                      ; preds = %49, %57
  %.sink = phi ptr [ %54, %57 ], [ %46, %49 ]
  store ptr %.sink, ptr %.04062, align 8, !tbaa !3
  br label %60

60:                                               ; preds = %.sink.split, %56, %48
  %.141 = phi ptr [ %45, %48 ], [ %53, %56 ], [ %.04062, %.sink.split ]
  %.038 = phi ptr [ %46, %48 ], [ %54, %56 ], [ %.sink, %.sink.split ]
  %61 = load ptr, ptr %.038, align 8, !tbaa !8
  %62 = icmp eq ptr %61, %1
  br i1 %62, label %.loopexit, label %.lr.ph64

.loopexit:                                        ; preds = %22, %.lr.ph, %52, %44, %60, %.preheader54, %.preheader, %24
  %.1 = phi ptr [ null, %24 ], [ %18, %.preheader ], [ null, %.preheader54 ], [ null, %52 ], [ null, %44 ], [ %.038, %60 ], [ null, %22 ], [ %.04259, %.lr.ph ]
  ret ptr %.1
}